; Function Attrs: mustprogress nofree norecurse nosync nounwind willreturn memory(read, inaccessiblemem: none) uwtable
define noundef double @_ZNK8QuantLib18PolynomialFunction9primitiveEd(ptr nocapture noundef nonnull readonly align 8 dereferenceable(112) %this, double noundef %t) local_unnamed_addr #6 align 2 {
entry:
  %K_ = getelementptr inbounds nuw i8, ptr %this, i64 80
  %0 = load double, ptr %K_, align 8, !tbaa !31
  %1 = load i64, ptr %this, align 8, !tbaa !13
  %cmp6.not = icmp eq i64 %1, 0
  br i1 %cmp6.not, label %for.cond.cleanup, label %for.body.lr.ph

for.body.lr.ph:                                   ; preds = %entry
  %prC_ = getelementptr inbounds nuw i8, ptr %this, i64 56
  %2 = load ptr, ptr %prC_, align 8, !tbaa !28
  br label %for.body

for.cond.cleanup:                                 ; preds = %for.body, %entry
  %result.0.lcssa = phi double [ %0, %entry ], [ %4, %for.body ]
  ret double %result.0.lcssa

for.body:                                         ; preds = %for.body.lr.ph, %for.body
  %i.09 = phi i64 [ 0, %for.body.lr.ph ], [ %inc, %for.body ]
  %tPower.08 = phi double [ %t, %for.body.lr.ph ], [ %mul, %for.body ]
  %result.07 = phi double [ %0, %for.body.lr.ph ], [ %4, %for.body ]
  %add.ptr.i = getelementptr inbounds nuw double, ptr %2, i64 %i.09
  %3 = load double, ptr %add.ptr.i, align 8, !tbaa !27
  %4 = tail call double @llvm.fmuladd.f64(double %3, double %tPower.08, double %result.07)
  %mul = fmul double %t, %tPower.08
  %inc = add nuw i64 %i.09, 1
  %exitcond.not = icmp eq i64 %inc, %1
  br i1 %exitcond.not, label %for.cond.cleanup, label %for.body, !llvm.loop !43
}